(dp1
S'UNH'
p2
(dp3
S'NYT-Bot'
p4
(lp5
(cdatetime
datetime
p6
(S'\x07\xd6\x0c\x12\x00\x00\x00\x00\x00\x00'
tRp7
I1
tp8
asS'Expert'
p9
(lp10
(cpandas.tslib
Timestamp
p11
(I1437091200000000000
NNtRp12
I1
tp13
a(g11
(I1435276800000000000
NNtRp14
I1
tp15
a(g11
(I1435104000000000000
NNtRp16
I1
tp17
a(g11
(I1429228800000000000
NNtRp18
I1
tp19
a(g11
(I1427241600000000000
NNtRp20
I1
tp21
a(g11
(I1390262400000000000
NNtRp22
I0
tp23
a(g11
(I1389052800000000000
NNtRp24
I1
tp25
a(g11
(I1384300800000000000
NNtRp26
I1
tp27
a(g11
(I1383609600000000000
NNtRp28
F0.5
tp29
a(g11
(I1371427200000000000
NNtRp30
F0.5
tp31
a(g11
(I1365120000000000000
NNtRp32
I1
tp33
a(g11
(I1361404800000000000
NNtRp34
I1
tp35
a(g11
(I1340150400000000000
NNtRp36
I1
tp37
a(g11
(I1301529600000000000
NNtRp38
F0.5
tp39
a(g11
(I1299110400000000000
NNtRp40
I1
tp41
a(g11
(I1294876800000000000
NNtRp42
I1
tp43
a(g11
(I1289779200000000000
NNtRp44
F0.5
tp45
a(g11
(I1271721600000000000
NNtRp46
F0.5
tp47
a(g11
(I1269302400000000000
NNtRp48
F0.5
tp49
a(g11
(I1262563200000000000
NNtRp50
I1
tp51
a(g11
(I1262044800000000000
NNtRp52
F0.5
tp53
a(g11
(I1248652800000000000
NNtRp54
I1
tp55
a(g11
(I1244678400000000000
NNtRp56
I0
tp57
a(g11
(I1231286400000000000
NNtRp58
I1
tp59
a(g11
(I1219276800000000000
NNtRp60
I1
tp61
a(g11
(I1215043200000000000
NNtRp62
F0.5
tp63
a(g11
(I1206403200000000000
NNtRp64
F0.5
tp65
a(g11
(I1203379200000000000
NNtRp66
I1
tp67
a(g11
(I1199664000000000000
NNtRp68
F0.5
tp69
a(g11
(I1199232000000000000
NNtRp70
F0.5
tp71
a(g11
(I1196380800000000000
NNtRp72
F0.5
tp73
a(g11
(I1194393600000000000
NNtRp74
I1
tp75
a(g11
(I1192752000000000000
NNtRp76
F0.5
tp77
a(g11
(I1184544000000000000
NNtRp78
I1
tp79
a(g11
(I1178496000000000000
NNtRp80
F0.5
tp81
a(g11
(I1177286400000000000
NNtRp82
F0.5
tp83
a(g11
(I1175126400000000000
NNtRp84
F0.5
tp85
a(g11
(I1162857600000000000
NNtRp86
I1
tp87
a(g11
(I1155168000000000000
NNtRp88
F0.5
tp89
a(g11
(I1153180800000000000
NNtRp90
I1
tp91
a(g11
(I1136505600000000000
NNtRp92
I1
tp93
a(g11
(I1133395200000000000
NNtRp94
I1
tp95
a(g11
(I1113523200000000000
NNtRp96
F0.5
tp97
a(g11
(I1112054400000000000
NNtRp98
I1
tp99
a(g11
(I1106179200000000000
NNtRp100
I1
tp101
a(g11
(I1102291200000000000
NNtRp102
F0.5
tp103
a(g11
(I1098144000000000000
NNtRp104
F0.5
tp105
a(g11
(I1086652800000000000
NNtRp106
F0.5
tp107
a(g11
(I1081900800000000000
NNtRp108
I1
tp109
a(g11
(I1066176000000000000
NNtRp110
I1
tp111
a(g11
(I1064966400000000000
NNtRp112
I1
tp113
a(g11
(I1058400000000000000
NNtRp114
I1
tp115
a(g11
(I1056067200000000000
NNtRp116
F0.5
tp117
a(g11
(I1050451200000000000
NNtRp118
F0.5
tp119
a(g11
(I1050451200000000000
NNtRp120
I1
tp121
a(g11
(I1040342400000000000
NNtRp122
I1
tp123
a(g11
(I1038182400000000000
NNtRp124
F0.5
tp125
a(g11
(I1037923200000000000
NNtRp126
I1
tp127
a(g11
(I1036972800000000000
NNtRp128
I1
tp129
a(g11
(I1034726400000000000
NNtRp130
F0.5
tp131
a(g11
(I1034294400000000000
NNtRp132
I1
tp133
a(g11
(I1032220800000000000
NNtRp134
I1
tp135
a(g11
(I1020816000000000000
NNtRp136
I1
tp137
a(g11
(I1019001600000000000
NNtRp138
I1
tp139
a(g11
(I1008720000000000000
NNtRp140
I1
tp141
a(g11
(I1006732800000000000
NNtRp142
I1
tp143
a(g11
(I1002585600000000000
NNtRp144
I1
tp145
a(g11
(I986342400000000000
NNtRp146
I1
tp147
a(g11
(I974678400000000000
NNtRp148
F0.5
tp149
a(g11
(I972950400000000000
NNtRp150
I1
tp151
a(g11
(I972604800000000000
NNtRp152
I1
tp153
a(g11
(I971395200000000000
NNtRp154
F0.5
tp155
a(g11
(I970617600000000000
NNtRp156
I1
tp157
a(g11
(I968371200000000000
NNtRp158
I1
tp159
a(g11
(I967507200000000000
NNtRp160
I1
tp161
a(g11
(I963878400000000000
NNtRp162
F0.5
tp163
a(g11
(I962928000000000000
NNtRp164
F0.5
tp165
a(g11
(I962841600000000000
NNtRp166
I1
tp167
a(g11
(I958435200000000000
NNtRp168
I1
tp169
a(g11
(I957484800000000000
NNtRp170
I1
tp171
a(g11
(I955584000000000000
NNtRp172
I1
tp173
a(g11
(I950140800000000000
NNtRp174
I1
tp175
a(g11
(I939254400000000000
NNtRp176
I1
tp177
a(g11
(I933811200000000000
NNtRp178
I1
tp179
a(g11
(I933811200000000000
NNtRp180
I1
tp181
a(g11
(I933811200000000000
NNtRp182
I1
tp183
a(g11
(I933811200000000000
NNtRp184
I1
tp185
a(g11
(I933724800000000000
NNtRp186
I1
tp187
a(g11
(I933724800000000000
NNtRp188
I1
tp189
a(g11
(I932947200000000000
NNtRp190
I1
tp191
a(g11
(I931305600000000000
NNtRp192
I1
tp193
a(g11
(I928886400000000000
NNtRp194
I1
tp195
a(g11
(I928800000000000000
NNtRp196
I1
tp197
a(g11
(I927590400000000000
NNtRp198
I1
tp199
a(g11
(I926899200000000000
NNtRp200
I1
tp201
a(g11
(I924825600000000000
NNtRp202
I1
tp203
a(g11
(I922838400000000000
NNtRp204
F0.5
tp205
a(g11
(I916963200000000000
NNtRp206
I1
tp207
a(g11
(I913766400000000000
NNtRp208
I1
tp209
a(g11
(I907804800000000000
NNtRp210
F0.5
tp211
a(g11
(I907113600000000000
NNtRp212
I1
tp213
a(g11
(I905385600000000000
NNtRp214
I1
tp215
a(g11
(I904521600000000000
NNtRp216
I1
tp217
a(g11
(I902966400000000000
NNtRp218
I1
tp219
a(g11
(I902793600000000000
NNtRp220
F0.5
tp221
a(g11
(I902448000000000000
NNtRp222
I1
tp223
a(g11
(I902448000000000000
NNtRp224
I1
tp225
a(g11
(I902361600000000000
NNtRp226
F0.5
tp227
a(g11
(I899164800000000000
NNtRp228
I1
tp229
a(g11
(I897955200000000000
NNtRp230
F0.5
tp231
a(g11
(I893980800000000000
NNtRp232
F0.5
tp233
a(g11
(I893116800000000000
NNtRp234
I1
tp235
a(g11
(I891993600000000000
NNtRp236
I1
tp237
a(g11
(I888278400000000000
NNtRp238
I1
tp239
ass.